target datalayout = "e-m:e-p270:32:32-p271:32:32-p272:64:64-i64:64-i128:128-f80:128-n8:16:32:64-S128"
target triple = "x86_64-pc-linux-gnu"

%struct.WebPMux = type { ptr, ptr, ptr, ptr, ptr, ptr, ptr, i32, i32 }
%struct.WebPData = type { ptr, i64 }
%struct.WebPMuxImage = type { ptr, ptr, ptr, ptr, i32, i32, i32, i32, ptr }

; Function Attrs: nounwind uwtable
define internal void @DeleteAllImages(ptr noundef %0) #0 {
  %2 = alloca ptr, align 8
  store ptr %0, ptr %2, align 8, !tbaa !24
  br label %3

3:                                                ; preds = %7, %1
  %4 = load ptr, ptr %2, align 8, !tbaa !24
  %5 = load ptr, ptr %4, align 8, !tbaa !26
  %6 = icmp ne ptr %5, null
  br i1 %6, label %7, label %12

7:                                                ; preds = %3
  %8 = load ptr, ptr %2, align 8, !tbaa !24
  %9 = load ptr, ptr %8, align 8, !tbaa !26
  %10 = call ptr @MuxImageDelete(ptr noundef %9)
  %11 = load ptr, ptr %2, align 8, !tbaa !24
  store ptr %10, ptr %11, align 8, !tbaa !26
  br label %3, !llvm.loop !27

12:                                               ; preds = %3
  ret void
}

; Function Attrs: nounwind uwtable
define i32 @WebPMuxSetImage(ptr noundef %0, ptr noundef %1, i32 noundef %2) #0 {
  %4 = alloca i32, align 4
  %5 = alloca ptr, align 8
  %6 = alloca ptr, align 8
  %7 = alloca i32, align 4
  %8 = alloca %struct.WebPMuxImage, align 8
  %9 = alloca i32, align 4
  %10 = alloca i32, align 4
  store ptr %0, ptr %5, align 8, !tbaa !7
  store ptr %1, ptr %6, align 8, !tbaa !17
  store i32 %2, ptr %7, align 4, !tbaa !3
  call void @llvm.lifetime.start.p0(i64 56, ptr %8) #7
  call void @llvm.lifetime.start.p0(i64 4, ptr %9) #7
  %11 = load ptr, ptr %5, align 8, !tbaa !7
  %12 = icmp eq ptr %11, null
  br i1 %12, label %26, label %13

13:                                               ; preds = %3
  %14 = load ptr, ptr %6, align 8, !tbaa !17
  %15 = icmp eq ptr %14, null
  br i1 %15, label %26, label %16

16:                                               ; preds = %13
  %17 = load ptr, ptr %6, align 8, !tbaa !17
  %18 = getelementptr inbounds nuw %struct.WebPData, ptr %17, i32 0, i32 0
  %19 = load ptr, ptr %18, align 8, !tbaa !19
  %20 = icmp eq ptr %19, null
  br i1 %20, label %26, label %21

21:                                               ; preds = %16
  %22 = load ptr, ptr %6, align 8, !tbaa !17
  %23 = getelementptr inbounds nuw %struct.WebPData, ptr %22, i32 0, i32 1
  %24 = load i64, ptr %23, align 8, !tbaa !22
  %25 = icmp ugt i64 %24, 4294967286
  br i1 %25, label %26, label %27

26:                                               ; preds = %21, %16, %13, %3
  store i32 -1, ptr %4, align 4
  store i32 1, ptr %10, align 4
  br label %53

27:                                               ; preds = %21
  %28 = load ptr, ptr %5, align 8, !tbaa !7
  %29 = getelementptr inbounds nuw %struct.WebPMux, ptr %28, i32 0, i32 0
  %30 = load ptr, ptr %29, align 8, !tbaa !23
  %31 = icmp ne ptr %30, null
  br i1 %31, label %32, label %35

32:                                               ; preds = %27
  %33 = load ptr, ptr %5, align 8, !tbaa !7
  %34 = getelementptr inbounds nuw %struct.WebPMux, ptr %33, i32 0, i32 0
  call void @DeleteAllImages(ptr noundef %34)
  br label %35

35:                                               ; preds = %32, %27
  call void @MuxImageInit(ptr noundef %8)
  %36 = load ptr, ptr %6, align 8, !tbaa !17
  %37 = load i32, ptr %7, align 4, !tbaa !3
  %38 = call i32 @SetAlphaAndImageChunks(ptr noundef %36, i32 noundef %37, ptr noundef %8)
  store i32 %38, ptr %9, align 4, !tbaa !3
  %39 = load i32, ptr %9, align 4, !tbaa !3
  %40 = icmp ne i32 %39, 1
  br i1 %40, label %41, label %42

41:                                               ; preds = %35
  br label %50

42:                                               ; preds = %35
  %43 = load ptr, ptr %5, align 8, !tbaa !7
  %44 = getelementptr inbounds nuw %struct.WebPMux, ptr %43, i32 0, i32 0
  %45 = call i32 @MuxImagePush(ptr noundef %8, ptr noundef %44)
  store i32 %45, ptr %9, align 4, !tbaa !3
  %46 = load i32, ptr %9, align 4, !tbaa !3
  %47 = icmp ne i32 %46, 1
  br i1 %47, label %48, label %49

48:                                               ; preds = %42
  br label %50

49:                                               ; preds = %42
  store i32 1, ptr %4, align 4
  store i32 1, ptr %10, align 4
  br label %53

50:                                               ; preds = %48, %41
  %51 = call ptr @MuxImageRelease(ptr noundef %8)
  %52 = load i32, ptr %9, align 4, !tbaa !3
  store i32 %52, ptr %4, align 4
  store i32 1, ptr %10, align 4
  br label %53

53:                                               ; preds = %50, %49, %26
  call void @llvm.lifetime.end.p0(i64 4, ptr %9) #7
  call void @llvm.lifetime.end.p0(i64 56, ptr %8) #7
  %54 = load i32, ptr %4, align 4
  ret i32 %54
}