; Function Attrs: nounwind uwtable
define i32 @WebPMuxSetImage(ptr noundef %0, ptr noundef %1, i32 noundef %2) local_unnamed_addr #0 {
  %4 = alloca %struct.WebPMuxImage, align 8
  call void @llvm.lifetime.start.p0(i64 56, ptr nonnull %4) #7
  %5 = icmp eq ptr %0, null
  %6 = icmp eq ptr %1, null
  %or.cond = or i1 %5, %6
  br i1 %or.cond, label %23, label %7

7:                                                ; preds = %3
  %8 = load ptr, ptr %1, align 8, !tbaa !10
  %9 = icmp eq ptr %8, null
  br i1 %9, label %23, label %10

10:                                               ; preds = %7
  %11 = getelementptr inbounds nuw i8, ptr %1, i64 8
  %12 = load i64, ptr %11, align 8, !tbaa !14
  %13 = icmp ugt i64 %12, 4294967286
  br i1 %13, label %23, label %14

14:                                               ; preds = %10
  %15 = load ptr, ptr %0, align 8, !tbaa !21
  %.not = icmp eq ptr %15, null
  br i1 %.not, label %DeleteAllImages.exit, label %.lr.ph.i

.lr.ph.i:                                         ; preds = %14, %.lr.ph.i
  %16 = phi ptr [ %17, %.lr.ph.i ], [ %15, %14 ]
  %17 = tail call ptr @MuxImageDelete(ptr noundef nonnull %16) #7
  store ptr %17, ptr %0, align 8, !tbaa !3
  %.not.i = icmp eq ptr %17, null
  br i1 %.not.i, label %DeleteAllImages.exit, label %.lr.ph.i, !llvm.loop !8

DeleteAllImages.exit:                             ; preds = %.lr.ph.i, %14
  call void @MuxImageInit(ptr noundef nonnull %4) #7
  %18 = call fastcc i32 @SetAlphaAndImageChunks(ptr noundef %1, i32 noundef %2, ptr noundef %4)
  %.not18 = icmp eq i32 %18, 1
  br i1 %.not18, label %19, label %21

19:                                               ; preds = %DeleteAllImages.exit
  %20 = call i32 @MuxImagePush(ptr noundef nonnull %4, ptr noundef nonnull %0) #7
  %.not19 = icmp eq i32 %20, 1
  br i1 %.not19, label %23, label %21

21:                                               ; preds = %19, %DeleteAllImages.exit
  %.0 = phi i32 [ %18, %DeleteAllImages.exit ], [ %20, %19 ]
  %22 = call ptr @MuxImageRelease(ptr noundef nonnull %4) #7
  br label %23

23:                                               ; preds = %19, %3, %7, %10, %21
  %.013 = phi i32 [ %.0, %21 ], [ -1, %10 ], [ -1, %7 ], [ -1, %3 ], [ 1, %19 ]
  call void @llvm.lifetime.end.p0(i64 56, ptr nonnull %4) #7
  ret i32 %.013
}